ccopy_reg
_reconstructor
p0
(cneural_net_impl
SimpleNetwork
p1
c__builtin__
object
p2
Ntp3
Rp4
(dp5
S'network'
p6
(ineural_net
NeuralNetwork
p7
(dp8
S'inputs'
p9
(lp10
(ineural_net
Node
p11
(dp12
g9
(lp13
sS'raw_value'
p14
F0.0
sS'transformed_value'
p15
F0.0
sS'forward_neighbors'
p16
(lp17
(ineural_net
Node
p18
(dp19
g9
(lp20
g11
a(ineural_net
Node
p21
(dp22
g9
(lp23
sg14
F1.0
sg15
F1.0
sg16
(lp24
g18
a(ineural_net
Node
p25
(dp26
g9
(lp27
g11
ag21
a(ineural_net
Node
p28
(dp29
g9
(lp30
sg14
F1.0
sg15
F1.0
sg16
(lp31
g18
ag25
asS'forward_weights'
p32
(lp33
(ineural_net
Weight
p34
(dp35
S'value'
p36
F0.053161275904138175
sba(ineural_net
Weight
p37
(dp38
g36
F-0.05389653796169243
sbasS'weights'
p39
(lp40
sS'fixed_weight'
p41
Nsba(ineural_net
Node
p42
(dp43
g9
(lp44
sg14
F1.0
sg15
F1.0
sg16
(lp45
g18
ag25
asg32
(lp46
(ineural_net
Weight
p47
(dp48
g36
F0.22231251676470096
sba(ineural_net
Weight
p49
(dp50
g36
F-0.22280808872581528
sbasg39
(lp51
sg41
Nsba(ineural_net
Node
p52
(dp53
g9
(lp54
sg14
F0.0
sg15
F0.0
sg16
(lp55
g18
ag25
asg32
(lp56
(ineural_net
Weight
p57
(dp58
g36
F-0.5382217332346597
sba(ineural_net
Weight
p59
(dp60
g36
F0.5380019896448948
sbasg39
(lp61
sg41
Nsba(ineural_net
Node
p62
(dp63
g9
(lp64
sg14
F0.0
sg15
F0.0
sg16
(lp65
g18
ag25
asg32
(lp66
(ineural_net
Weight
p67
(dp68
g36
F-0.6339458451340249
sba(ineural_net
Weight
p69
(dp70
g36
F0.6336944342072953
sbasg39
(lp71
sg41
Nsba(ineural_net
Node
p72
(dp73
g9
(lp74
sg14
F1.0
sg15
F1.0
sg16
(lp75
g18
ag25
asg32
(lp76
(ineural_net
Weight
p77
(dp78
g36
F0.20614602623562314
sba(ineural_net
Weight
p79
(dp80
g36
F-0.2068778634189981
sbasg39
(lp81
sg41
Nsba(ineural_net
Node
p82
(dp83
g9
(lp84
sg14
F1.0
sg15
F1.0
sg16
(lp85
g18
ag25
asg32
(lp86
(ineural_net
Weight
p87
(dp88
g36
F0.014803680746871092
sba(ineural_net
Weight
p89
(dp90
g36
F-0.01573807554001476
sbasg39
(lp91
sg41
Nsba(ineural_net
Node
p92
(dp93
g9
(lp94
sg14
F1.0
sg15
F1.0
sg16
(lp95
g18
ag25
asg32
(lp96
(ineural_net
Weight
p97
(dp98
g36
F0.25143174380806144
sba(ineural_net
Weight
p99
(dp100
g36
F-0.2522586140265074
sbasg39
(lp101
sg41
Nsba(ineural_net
Node
p102
(dp103
g9
(lp104
sg14
F1.0
sg15
F1.0
sg16
(lp105
g18
ag25
asg32
(lp106
(ineural_net
Weight
p107
(dp108
g36
F-0.15182914656357024
sba(ineural_net
Weight
p109
(dp110
g36
F0.15158412454840609
sbasg39
(lp111
sg41
Nsba(ineural_net
Node
p112
(dp113
g9
(lp114
sg14
F1.0
sg15
F1.0
sg16
(lp115
g18
ag25
asg32
(lp116
(ineural_net
Weight
p117
(dp118
g36
F-0.012526167564131902
sba(ineural_net
Weight
p119
(dp120
g36
F0.012015720381356332
sbasg39
(lp121
sg41
Nsba(ineural_net
Node
p122
(dp123
g9
(lp124
sg14
F1.0
sg15
F1.0
sg16
(lp125
g18
ag25
asg32
(lp126
(ineural_net
Weight
p127
(dp128
g36
F-0.043021807220754424
sba(ineural_net
Weight
p129
(dp130
g36
F0.042283530675425535
sbasg39
(lp131
sg41
Nsba(ineural_net
Node
p132
(dp133
g9
(lp134
sg14
F1.0
sg15
F1.0
sg16
(lp135
g18
ag25
asg32
(lp136
(ineural_net
Weight
p137
(dp138
g36
F0.1376292612199637
sba(ineural_net
Weight
p139
(dp140
g36
F-0.1383820378223549
sbasg39
(lp141
sg41
Nsba(ineural_net
Node
p142
(dp143
g9
(lp144
sg14
F1.0
sg15
F1.0
sg16
(lp145
g18
ag25
asg32
(lp146
(ineural_net
Weight
p147
(dp148
g36
F0.045230329718373694
sba(ineural_net
Weight
p149
(dp150
g36
F-0.0458860906932238
sbasg39
(lp151
sg41
Nsba(ineural_net
Node
p152
(dp153
g9
(lp154
sg14
F0.0
sg15
F0.0
sg16
(lp155
g18
ag25
asg32
(lp156
(ineural_net
Weight
p157
(dp158
g36
F0.269693806021721
sba(ineural_net
Weight
p159
(dp160
g36
F-0.27023971294799315
sbasg39
(lp161
sg41
Nsba(ineural_net
Node
p162
(dp163
g9
(lp164
sg14
F0.0
sg15
F0.0
sg16
(lp165
g18
ag25
asg32
(lp166
(ineural_net
Weight
p167
(dp168
g36
F0.36555618333510165
sba(ineural_net
Weight
p169
(dp170
g36
F-0.3657861283970297
sbasg39
(lp171
sg41
Nsba(ineural_net
Node
p172
(dp173
g9
(lp174
sg14
F0.0
sg15
F0.0
sg16
(lp175
g18
ag25
asg32
(lp176
(ineural_net
Weight
p177
(dp178
g36
F-0.18882482049116747
sba(ineural_net
Weight
p179
(dp180
g36
F0.18858787653477901
sbasg39
(lp181
sg41
Nsba(ineural_net
Node
p182
(dp183
g9
(lp184
sg14
F0.0
sg15
F0.0
sg16
(lp185
g18
ag25
asg32
(lp186
(ineural_net
Weight
p187
(dp188
g36
F-0.49077634018149857
sba(ineural_net
Weight
p189
(dp190
g36
F0.4906747826170135
sbasg39
(lp191
sg41
Nsba(ineural_net
Node
p192
(dp193
g9
(lp194
sg14
F1.0
sg15
F1.0
sg16
(lp195
g18
ag25
asg32
(lp196
(ineural_net
Weight
p197
(dp198
g36
F0.1256487320903017
sba(ineural_net
Weight
p199
(dp200
g36
F-0.12616237502705535
sbasg39
(lp201
sg41
Nsba(ineural_net
Node
p202
(dp203
g9
(lp204
sg14
F0.0
sg15
F0.0
sg16
(lp205
g18
ag25
asg32
(lp206
(ineural_net
Weight
p207
(dp208
g36
F-0.35476816697705427
sba(ineural_net
Weight
p209
(dp210
g36
F0.35452146848473537
sbasg39
(lp211
sg41
Nsba(ineural_net
Node
p212
(dp213
g9
(lp214
sg14
F1.0
sg15
F1.0
sg16
(lp215
g18
ag25
asg32
(lp216
(ineural_net
Weight
p217
(dp218
g36
F-0.4269739542861617
sba(ineural_net
Weight
p219
(dp220
g36
F0.42659210086859484
sbasg39
(lp221
sg41
Nsba(ineural_net
Node
p222
(dp223
g9
(lp224
sg14
F1.0
sg15
F1.0
sg16
(lp225
g18
ag25
asg32
(lp226
(ineural_net
Weight
p227
(dp228
g36
F0.30667406182426526
sba(ineural_net
Weight
p229
(dp230
g36
F-0.3074299999055376
sbasg39
(lp231
sg41
Nsba(ineural_net
Node
p232
(dp233
g9
(lp234
sg14
F0.0
sg15
F0.0
sg16
(lp235
g18
ag25
asg32
(lp236
(ineural_net
Weight
p237
(dp238
g36
F-0.5236960223720006
sba(ineural_net
Weight
p239
(dp240
g36
F0.523541318501918
sbasg39
(lp241
sg41
Nsba(ineural_net
Node
p242
(dp243
g9
(lp244
sg14
F1.0
sg15
F1.0
sg16
(lp245
g18
ag25
asg32
(lp246
(ineural_net
Weight
p247
(dp248
g36
F-0.5026350960040097
sba(ineural_net
Weight
p249
(dp250
g36
F0.5021412014404024
sbasg39
(lp251
sg41
Nsba(ineural_net
Node
p252
(dp253
g9
(lp254
sg14
F1.0
sg15
F1.0
sg16
(lp255
g18
ag25
asg32
(lp256
(ineural_net
Weight
p257
(dp258
g36
F-0.17310891976683104
sba(ineural_net
Weight
p259
(dp260
g36
F0.1728503318987057
sbasg39
(lp261
sg41
Nsba(ineural_net
Node
p262
(dp263
g9
(lp264
sg14
F1.0
sg15
F1.0
sg16
(lp265
g18
ag25
asg32
(lp266
(ineural_net
Weight
p267
(dp268
g36
F-0.00457941753895836
sba(ineural_net
Weight
p269
(dp270
g36
F0.0039924756108749545
sbasg39
(lp271
sg41
Nsba(ineural_net
Node
p272
(dp273
g9
(lp274
sg14
F1.0
sg15
F1.0
sg16
(lp275
g18
ag25
asg32
(lp276
(ineural_net
Weight
p277
(dp278
g36
F-0.23597527749758515
sba(ineural_net
Weight
p279
(dp280
g36
F0.23531681623036196
sbasg39
(lp281
sg41
Nsba(ineural_net
Node
p282
(dp283
g9
(lp284
sg14
F1.0
sg15
F1.0
sg16
(lp285
g18
ag25
asg32
(lp286
(ineural_net
Weight
p287
(dp288
g36
F0.0003454392963373567
sba(ineural_net
Weight
p289
(dp290
g36
F-0.0004997961340604525
sbasg39
(lp291
sg41
Nsba(ineural_net
Node
p292
(dp293
g9
(lp294
sg14
F0.0
sg15
F0.0
sg16
(lp295
g18
ag25
asg32
(lp296
(ineural_net
Weight
p297
(dp298
g36
F-0.1967595029363286
sba(ineural_net
Weight
p299
(dp300
g36
F0.19631988534791
sbasg39
(lp301
sg41
Nsba(ineural_net
Node
p302
(dp303
g9
(lp304
sg14
F1.0
sg15
F1.0
sg16
(lp305
g18
ag25
asg32
(lp306
(ineural_net
Weight
p307
(dp308
g36
F-0.2676144388188641
sba(ineural_net
Weight
p309
(dp310
g36
F0.2672101453348692
sbasg39
(lp311
sg41
Nsba(ineural_net
Node
p312
(dp313
g9
(lp314
sg14
F0.0
sg15
F0.0
sg16
(lp315
g18
ag25
asg32
(lp316
(ineural_net
Weight
p317
(dp318
g36
F0.3898503038749292
sba(ineural_net
Weight
p319
(dp320
g36
F-0.3901335203865927
sbasg39
(lp321
sg41
Nsba(ineural_net
Node
p322
(dp323
g9
(lp324
sg14
F1.0
sg15
F1.0
sg16
(lp325
g18
ag25
asg32
(lp326
(ineural_net
Weight
p327
(dp328
g36
F-0.04052483624759476
sba(ineural_net
Weight
p329
(dp330
g36
F0.04034927944448672
sbasg39
(lp331
sg41
Nsba(ineural_net
Node
p332
(dp333
g9
(lp334
sg14
F0.0
sg15
F0.0
sg16
(lp335
g18
ag25
asg32
(lp336
(ineural_net
Weight
p337
(dp338
g36
F-0.21811566147194378
sba(ineural_net
Weight
p339
(dp340
g36
F0.21789527997558356
sbasg39
(lp341
sg41
Nsba(ineural_net
Node
p342
(dp343
g9
(lp344
sg14
F1.0
sg15
F1.0
sg16
(lp345
g18
ag25
asg32
(lp346
(ineural_net
Weight
p347
(dp348
g36
F0.5140029890405277
sba(ineural_net
Weight
p349
(dp350
g36
F-0.5143498889805455
sbasg39
(lp351
sg41
Nsba(ineural_net
Node
p352
(dp353
g9
(lp354
sg14
F0.0
sg15
F0.0
sg16
(lp355
g18
ag25
asg32
(lp356
(ineural_net
Weight
p357
(dp358
g36
F0.005074324997114299
sba(ineural_net
Weight
p359
(dp360
g36
F-0.005354708995054714
sbasg39
(lp361
sg41
Nsba(ineural_net
Node
p362
(dp363
g9
(lp364
sg14
F1.0
sg15
F1.0
sg16
(lp365
g18
ag25
asg32
(lp366
(ineural_net
Weight
p367
(dp368
g36
F-0.45947134633426423
sba(ineural_net
Weight
p369
(dp370
g36
F0.4591378188072464
sbasg39
(lp371
sg41
Nsbasg14
F0.42361958430221924
sg15
F0.6043490593490581
sg16
(lp372
sg32
(lp373
sg39
(lp374
(ineural_net
Weight
p375
(dp376
g36
F-0.10410927155650658
sba(ineural_net
Weight
p377
(dp378
g36
F-0.015029097143210894
sbag37
ag49
ag59
ag69
ag79
ag89
ag99
ag109
ag119
ag129
ag139
ag149
ag159
ag169
ag179
ag189
ag199
ag209
ag219
ag229
ag239
ag249
ag259
ag269
ag279
ag289
ag299
ag309
ag319
ag329
ag339
ag349
ag359
ag369
asg41
(ineural_net
Weight
p379
(dp380
g36
F0.009464504440505448
sbsS'delta'
p381
F-0.14535454396971856
sbasg32
(lp382
(ineural_net
Weight
p383
(dp384
g36
F0.01425368068794371
sbag377
asg39
(lp385
sg41
Nsbag28
ag42
ag52
ag62
ag72
ag82
ag92
ag102
ag112
ag122
ag132
ag142
ag152
ag162
ag172
ag182
ag192
ag202
ag212
ag222
ag232
ag242
ag252
ag262
ag272
ag282
ag292
ag302
ag312
ag322
ag332
ag342
ag352
ag362
asg14
F-0.42520614378479693
sg15
F0.39527163926726244
sg16
(lp386
sg32
(lp387
sg39
(lp388
(ineural_net
Weight
p389
(dp390
g36
F0.1033244367057459
sbag383
ag34
ag47
ag57
ag67
ag77
ag87
ag97
ag107
ag117
ag127
ag137
ag147
ag157
ag167
ag177
ag187
ag197
ag207
ag217
ag227
ag237
ag247
ag257
ag267
ag277
ag287
ag297
ag307
ag317
ag327
ag337
ag347
ag357
ag367
asg41
(ineural_net
Weight
p391
(dp392
g36
F0.0014145267208208923
sbsg381
F0.14539222569910293
sbag25
asg32
(lp393
g389
ag375
asg39
(lp394
sg41
Nsbag21
ag28
ag42
ag52
ag62
ag72
ag82
ag92
ag102
ag112
ag122
ag132
ag142
ag152
ag162
ag172
ag182
ag192
ag202
ag212
ag222
ag232
ag242
ag252
ag262
ag272
ag282
ag292
ag302
ag312
ag322
ag332
ag342
ag352
ag362
asS'complete'
p395
I01
sS'outputs'
p396
(lp397
g18
ag25
asS'node_set'
p398
(dp399
g112
I01
sg282
I01
sg172
I01
sg342
I01
sg62
I01
sg232
I01
sg122
I01
sg11
I01
sg292
I01
sg182
I01
sg352
I01
sg72
I01
sg242
I01
sg132
I01
sg21
I01
sg302
I01
sg192
I01
sg362
I01
sg82
I01
sg252
I01
sg142
I01
sg28
I01
sg312
I01
sg202
I01
sg18
I01
sg92
I01
sg262
I01
sg152
I01
sg42
I01
sg322
I01
sg212
I01
sg25
I01
sg102
I01
sg272
I01
sg162
I01
sg52
I01
sg332
I01
sg222
I01
ssg39
(lp400
g389
ag391
ag383
ag34
ag47
ag57
ag67
ag77
ag87
ag97
ag107
ag117
ag127
ag137
ag147
ag157
ag167
ag177
ag187
ag197
ag207
ag217
ag227
ag237
ag247
ag257
ag267
ag277
ag287
ag297
ag307
ag317
ag327
ag337
ag347
ag357
ag367
ag375
ag379
ag377
ag37
ag49
ag59
ag69
ag79
ag89
ag99
ag109
ag119
ag129
ag139
ag149
ag159
ag169
ag179
ag189
ag199
ag209
ag219
ag229
ag239
ag249
ag259
ag269
ag279
ag289
ag299
ag309
ag319
ag329
ag339
ag349
ag359
ag369
asS'hidden_nodes'
p401
(lp402
sbsS'FeedForwardFn'
p403
cneural_net_impl
FeedForward
p404
sS'TrainFn'
p405
cneural_net_impl
Train
p406
sb.